target datalayout = "e-m:e-p270:32:32-p271:32:32-p272:64:64-i64:64-i128:128-f80:128-n8:16:32:64-S128"
target triple = "x86_64-pc-linux-gnu"

@LHs = internal constant [16 x i32] [i32 0, i32 1, i32 256, i32 257, i32 65536, i32 65537, i32 65792, i32 65793, i32 16777216, i32 16777217, i32 16777472, i32 16777473, i32 16842752, i32 16842753, i32 16843008, i32 16843009], align 16
@RHs = internal constant [16 x i32] [i32 0, i32 16777216, i32 65536, i32 16842752, i32 256, i32 16777472, i32 65792, i32 16843008, i32 1, i32 16777217, i32 65537, i32 16842753, i32 257, i32 16777473, i32 65793, i32 16843009], align 16

; Function Attrs: alwaysinline nounwind uwtable
define internal i32 @mbedtls_get_unaligned_uint32(ptr noundef %0) #5 {
  %2 = alloca ptr, align 8
  %3 = alloca i32, align 4
  store ptr %0, ptr %2, align 8, !tbaa !22
  call void @llvm.lifetime.start.p0(i64 4, ptr %3) #8
  %4 = load ptr, ptr %2, align 8, !tbaa !22
  call void @llvm.memcpy.p0.p0.i64(ptr align 4 %3, ptr align 1 %4, i64 4, i1 false)
  %5 = load i32, ptr %3, align 4, !tbaa !12
  call void @llvm.lifetime.end.p0(i64 4, ptr %3) #8
  ret i32 %5
}

; Function Attrs: nounwind uwtable
define hidden void @mbedtls_des_setkey(ptr noundef %0, ptr noundef %1) #0 {
  %3 = alloca ptr, align 8
  %4 = alloca ptr, align 8
  %5 = alloca i32, align 4
  %6 = alloca i32, align 4
  %7 = alloca i32, align 4
  %8 = alloca i32, align 4
  store ptr %0, ptr %3, align 8, !tbaa !19
  store ptr %1, ptr %4, align 8, !tbaa !10
  call void @llvm.lifetime.start.p0(i64 4, ptr %5) #8
  call void @llvm.lifetime.start.p0(i64 4, ptr %6) #8
  call void @llvm.lifetime.start.p0(i64 4, ptr %7) #8
  call void @llvm.lifetime.start.p0(i64 4, ptr %8) #8
  %9 = load ptr, ptr %4, align 8, !tbaa !10
  %10 = getelementptr inbounds i8, ptr %9, i64 0
  %11 = call i32 @mbedtls_get_unaligned_uint32(ptr noundef %10)
  %12 = call i32 @llvm.bswap.i32(i32 %11)
  store i32 %12, ptr %6, align 4, !tbaa !12
  %13 = load ptr, ptr %4, align 8, !tbaa !10
  %14 = getelementptr inbounds i8, ptr %13, i64 4
  %15 = call i32 @mbedtls_get_unaligned_uint32(ptr noundef %14)
  %16 = call i32 @llvm.bswap.i32(i32 %15)
  store i32 %16, ptr %7, align 4, !tbaa !12
  %17 = load i32, ptr %7, align 4, !tbaa !12
  %18 = lshr i32 %17, 4
  %19 = load i32, ptr %6, align 4, !tbaa !12
  %20 = xor i32 %18, %19
  %21 = and i32 %20, 252645135
  store i32 %21, ptr %8, align 4, !tbaa !12
  %22 = load i32, ptr %8, align 4, !tbaa !12
  %23 = load i32, ptr %6, align 4, !tbaa !12
  %24 = xor i32 %23, %22
  store i32 %24, ptr %6, align 4, !tbaa !12
  %25 = load i32, ptr %8, align 4, !tbaa !12
  %26 = shl i32 %25, 4
  %27 = load i32, ptr %7, align 4, !tbaa !12
  %28 = xor i32 %27, %26
  store i32 %28, ptr %7, align 4, !tbaa !12
  %29 = load i32, ptr %7, align 4, !tbaa !12
  %30 = load i32, ptr %6, align 4, !tbaa !12
  %31 = xor i32 %29, %30
  %32 = and i32 %31, 269488144
  store i32 %32, ptr %8, align 4, !tbaa !12
  %33 = load i32, ptr %8, align 4, !tbaa !12
  %34 = load i32, ptr %6, align 4, !tbaa !12
  %35 = xor i32 %34, %33
  store i32 %35, ptr %6, align 4, !tbaa !12
  %36 = load i32, ptr %8, align 4, !tbaa !12
  %37 = load i32, ptr %7, align 4, !tbaa !12
  %38 = xor i32 %37, %36
  store i32 %38, ptr %7, align 4, !tbaa !12
  %39 = load i32, ptr %6, align 4, !tbaa !12
  %40 = and i32 %39, 15
  %41 = zext i32 %40 to i64
  %42 = getelementptr inbounds nuw [16 x i32], ptr @LHs, i64 0, i64 %41
  %43 = load i32, ptr %42, align 4, !tbaa !12
  %44 = shl i32 %43, 3
  %45 = load i32, ptr %6, align 4, !tbaa !12
  %46 = lshr i32 %45, 8
  %47 = and i32 %46, 15
  %48 = zext i32 %47 to i64
  %49 = getelementptr inbounds nuw [16 x i32], ptr @LHs, i64 0, i64 %48
  %50 = load i32, ptr %49, align 4, !tbaa !12
  %51 = shl i32 %50, 2
  %52 = or i32 %44, %51
  %53 = load i32, ptr %6, align 4, !tbaa !12
  %54 = lshr i32 %53, 16
  %55 = and i32 %54, 15
  %56 = zext i32 %55 to i64
  %57 = getelementptr inbounds nuw [16 x i32], ptr @LHs, i64 0, i64 %56
  %58 = load i32, ptr %57, align 4, !tbaa !12
  %59 = shl i32 %58, 1
  %60 = or i32 %52, %59
  %61 = load i32, ptr %6, align 4, !tbaa !12
  %62 = lshr i32 %61, 24
  %63 = and i32 %62, 15
  %64 = zext i32 %63 to i64
  %65 = getelementptr inbounds nuw [16 x i32], ptr @LHs, i64 0, i64 %64
  %66 = load i32, ptr %65, align 4, !tbaa !12
  %67 = or i32 %60, %66
  %68 = load i32, ptr %6, align 4, !tbaa !12
  %69 = lshr i32 %68, 5
  %70 = and i32 %69, 15
  %71 = zext i32 %70 to i64
  %72 = getelementptr inbounds nuw [16 x i32], ptr @LHs, i64 0, i64 %71
  %73 = load i32, ptr %72, align 4, !tbaa !12
  %74 = shl i32 %73, 7
  %75 = or i32 %67, %74
  %76 = load i32, ptr %6, align 4, !tbaa !12
  %77 = lshr i32 %76, 13
  %78 = and i32 %77, 15
  %79 = zext i32 %78 to i64
  %80 = getelementptr inbounds nuw [16 x i32], ptr @LHs, i64 0, i64 %79
  %81 = load i32, ptr %80, align 4, !tbaa !12
  %82 = shl i32 %81, 6
  %83 = or i32 %75, %82
  %84 = load i32, ptr %6, align 4, !tbaa !12
  %85 = lshr i32 %84, 21
  %86 = and i32 %85, 15
  %87 = zext i32 %86 to i64
  %88 = getelementptr inbounds nuw [16 x i32], ptr @LHs, i64 0, i64 %87
  %89 = load i32, ptr %88, align 4, !tbaa !12
  %90 = shl i32 %89, 5
  %91 = or i32 %83, %90
  %92 = load i32, ptr %6, align 4, !tbaa !12
  %93 = lshr i32 %92, 29
  %94 = and i32 %93, 15
  %95 = zext i32 %94 to i64
  %96 = getelementptr inbounds nuw [16 x i32], ptr @LHs, i64 0, i64 %95
  %97 = load i32, ptr %96, align 4, !tbaa !12
  %98 = shl i32 %97, 4
  %99 = or i32 %91, %98
  store i32 %99, ptr %6, align 4, !tbaa !12
  %100 = load i32, ptr %7, align 4, !tbaa !12
  %101 = lshr i32 %100, 1
  %102 = and i32 %101, 15
  %103 = zext i32 %102 to i64
  %104 = getelementptr inbounds nuw [16 x i32], ptr @RHs, i64 0, i64 %103
  %105 = load i32, ptr %104, align 4, !tbaa !12
  %106 = shl i32 %105, 3
  %107 = load i32, ptr %7, align 4, !tbaa !12
  %108 = lshr i32 %107, 9
  %109 = and i32 %108, 15
  %110 = zext i32 %109 to i64
  %111 = getelementptr inbounds nuw [16 x i32], ptr @RHs, i64 0, i64 %110
  %112 = load i32, ptr %111, align 4, !tbaa !12
  %113 = shl i32 %112, 2
  %114 = or i32 %106, %113
  %115 = load i32, ptr %7, align 4, !tbaa !12
  %116 = lshr i32 %115, 17
  %117 = and i32 %116, 15
  %118 = zext i32 %117 to i64
  %119 = getelementptr inbounds nuw [16 x i32], ptr @RHs, i64 0, i64 %118
  %120 = load i32, ptr %119, align 4, !tbaa !12
  %121 = shl i32 %120, 1
  %122 = or i32 %114, %121
  %123 = load i32, ptr %7, align 4, !tbaa !12
  %124 = lshr i32 %123, 25
  %125 = and i32 %124, 15
  %126 = zext i32 %125 to i64
  %127 = getelementptr inbounds nuw [16 x i32], ptr @RHs, i64 0, i64 %126
  %128 = load i32, ptr %127, align 4, !tbaa !12
  %129 = or i32 %122, %128
  %130 = load i32, ptr %7, align 4, !tbaa !12
  %131 = lshr i32 %130, 4
  %132 = and i32 %131, 15
  %133 = zext i32 %132 to i64
  %134 = getelementptr inbounds nuw [16 x i32], ptr @RHs, i64 0, i64 %133
  %135 = load i32, ptr %134, align 4, !tbaa !12
  %136 = shl i32 %135, 7
  %137 = or i32 %129, %136
  %138 = load i32, ptr %7, align 4, !tbaa !12
  %139 = lshr i32 %138, 12
  %140 = and i32 %139, 15
  %141 = zext i32 %140 to i64
  %142 = getelementptr inbounds nuw [16 x i32], ptr @RHs, i64 0, i64 %141
  %143 = load i32, ptr %142, align 4, !tbaa !12
  %144 = shl i32 %143, 6
  %145 = or i32 %137, %144
  %146 = load i32, ptr %7, align 4, !tbaa !12
  %147 = lshr i32 %146, 20
  %148 = and i32 %147, 15
  %149 = zext i32 %148 to i64
  %150 = getelementptr inbounds nuw [16 x i32], ptr @RHs, i64 0, i64 %149
  %151 = load i32, ptr %150, align 4, !tbaa !12
  %152 = shl i32 %151, 5
  %153 = or i32 %145, %152
  %154 = load i32, ptr %7, align 4, !tbaa !12
  %155 = lshr i32 %154, 28
  %156 = and i32 %155, 15
  %157 = zext i32 %156 to i64
  %158 = getelementptr inbounds nuw [16 x i32], ptr @RHs, i64 0, i64 %157
  %159 = load i32, ptr %158, align 4, !tbaa !12
  %160 = shl i32 %159, 4
  %161 = or i32 %153, %160
  store i32 %161, ptr %7, align 4, !tbaa !12
  %162 = load i32, ptr %6, align 4, !tbaa !12
  %163 = and i32 %162, 268435455
  store i32 %163, ptr %6, align 4, !tbaa !12
  %164 = load i32, ptr %7, align 4, !tbaa !12
  %165 = and i32 %164, 268435455
  store i32 %165, ptr %7, align 4, !tbaa !12
  store i32 0, ptr %5, align 4, !tbaa !12
  br label %166

166:                                              ; preds = %381, %2
  %167 = load i32, ptr %5, align 4, !tbaa !12
  %168 = icmp slt i32 %167, 16
  br i1 %168, label %169, label %384

169:                                              ; preds = %166
  %170 = load i32, ptr %5, align 4, !tbaa !12
  %171 = icmp slt i32 %170, 2
  br i1 %171, label %178, label %172

172:                                              ; preds = %169
  %173 = load i32, ptr %5, align 4, !tbaa !12
  %174 = icmp eq i32 %173, 8
  br i1 %174, label %178, label %175

175:                                              ; preds = %172
  %176 = load i32, ptr %5, align 4, !tbaa !12
  %177 = icmp eq i32 %176, 15
  br i1 %177, label %178, label %191

178:                                              ; preds = %175, %172, %169
  %179 = load i32, ptr %6, align 4, !tbaa !12
  %180 = shl i32 %179, 1
  %181 = load i32, ptr %6, align 4, !tbaa !12
  %182 = lshr i32 %181, 27
  %183 = or i32 %180, %182
  %184 = and i32 %183, 268435455
  store i32 %184, ptr %6, align 4, !tbaa !12
  %185 = load i32, ptr %7, align 4, !tbaa !12
  %186 = shl i32 %185, 1
  %187 = load i32, ptr %7, align 4, !tbaa !12
  %188 = lshr i32 %187, 27
  %189 = or i32 %186, %188
  %190 = and i32 %189, 268435455
  store i32 %190, ptr %7, align 4, !tbaa !12
  br label %204

191:                                              ; preds = %175
  %192 = load i32, ptr %6, align 4, !tbaa !12
  %193 = shl i32 %192, 2
  %194 = load i32, ptr %6, align 4, !tbaa !12
  %195 = lshr i32 %194, 26
  %196 = or i32 %193, %195
  %197 = and i32 %196, 268435455
  store i32 %197, ptr %6, align 4, !tbaa !12
  %198 = load i32, ptr %7, align 4, !tbaa !12
  %199 = shl i32 %198, 2
  %200 = load i32, ptr %7, align 4, !tbaa !12
  %201 = lshr i32 %200, 26
  %202 = or i32 %199, %201
  %203 = and i32 %202, 268435455
  store i32 %203, ptr %7, align 4, !tbaa !12
  br label %204

204:                                              ; preds = %191, %178
  %205 = load i32, ptr %6, align 4, !tbaa !12
  %206 = shl i32 %205, 4
  %207 = and i32 %206, 603979776
  %208 = load i32, ptr %6, align 4, !tbaa !12
  %209 = shl i32 %208, 28
  %210 = and i32 %209, 268435456
  %211 = or i32 %207, %210
  %212 = load i32, ptr %6, align 4, !tbaa !12
  %213 = shl i32 %212, 14
  %214 = and i32 %213, 134217728
  %215 = or i32 %211, %214
  %216 = load i32, ptr %6, align 4, !tbaa !12
  %217 = shl i32 %216, 18
  %218 = and i32 %217, 34078720
  %219 = or i32 %215, %218
  %220 = load i32, ptr %6, align 4, !tbaa !12
  %221 = shl i32 %220, 6
  %222 = and i32 %221, 16777216
  %223 = or i32 %219, %222
  %224 = load i32, ptr %6, align 4, !tbaa !12
  %225 = shl i32 %224, 9
  %226 = and i32 %225, 2097152
  %227 = or i32 %223, %226
  %228 = load i32, ptr %6, align 4, !tbaa !12
  %229 = lshr i32 %228, 1
  %230 = and i32 %229, 1048576
  %231 = or i32 %227, %230
  %232 = load i32, ptr %6, align 4, !tbaa !12
  %233 = shl i32 %232, 10
  %234 = and i32 %233, 262144
  %235 = or i32 %231, %234
  %236 = load i32, ptr %6, align 4, !tbaa !12
  %237 = shl i32 %236, 2
  %238 = and i32 %237, 131072
  %239 = or i32 %235, %238
  %240 = load i32, ptr %6, align 4, !tbaa !12
  %241 = lshr i32 %240, 10
  %242 = and i32 %241, 65536
  %243 = or i32 %239, %242
  %244 = load i32, ptr %7, align 4, !tbaa !12
  %245 = lshr i32 %244, 13
  %246 = and i32 %245, 8192
  %247 = or i32 %243, %246
  %248 = load i32, ptr %7, align 4, !tbaa !12
  %249 = lshr i32 %248, 4
  %250 = and i32 %249, 4096
  %251 = or i32 %247, %250
  %252 = load i32, ptr %7, align 4, !tbaa !12
  %253 = shl i32 %252, 6
  %254 = and i32 %253, 2048
  %255 = or i32 %251, %254
  %256 = load i32, ptr %7, align 4, !tbaa !12
  %257 = lshr i32 %256, 1
  %258 = and i32 %257, 1024
  %259 = or i32 %255, %258
  %260 = load i32, ptr %7, align 4, !tbaa !12
  %261 = lshr i32 %260, 14
  %262 = and i32 %261, 512
  %263 = or i32 %259, %262
  %264 = load i32, ptr %7, align 4, !tbaa !12
  %265 = and i32 %264, 256
  %266 = or i32 %263, %265
  %267 = load i32, ptr %7, align 4, !tbaa !12
  %268 = lshr i32 %267, 5
  %269 = and i32 %268, 32
  %270 = or i32 %266, %269
  %271 = load i32, ptr %7, align 4, !tbaa !12
  %272 = lshr i32 %271, 10
  %273 = and i32 %272, 16
  %274 = or i32 %270, %273
  %275 = load i32, ptr %7, align 4, !tbaa !12
  %276 = lshr i32 %275, 3
  %277 = and i32 %276, 8
  %278 = or i32 %274, %277
  %279 = load i32, ptr %7, align 4, !tbaa !12
  %280 = lshr i32 %279, 18
  %281 = and i32 %280, 4
  %282 = or i32 %278, %281
  %283 = load i32, ptr %7, align 4, !tbaa !12
  %284 = lshr i32 %283, 26
  %285 = and i32 %284, 2
  %286 = or i32 %282, %285
  %287 = load i32, ptr %7, align 4, !tbaa !12
  %288 = lshr i32 %287, 24
  %289 = and i32 %288, 1
  %290 = or i32 %286, %289
  %291 = load ptr, ptr %3, align 8, !tbaa !19
  %292 = getelementptr inbounds nuw i32, ptr %291, i32 1
  store ptr %292, ptr %3, align 8, !tbaa !19
  store i32 %290, ptr %291, align 4, !tbaa !12
  %293 = load i32, ptr %6, align 4, !tbaa !12
  %294 = shl i32 %293, 15
  %295 = and i32 %294, 536870912
  %296 = load i32, ptr %6, align 4, !tbaa !12
  %297 = shl i32 %296, 17
  %298 = and i32 %297, 268435456
  %299 = or i32 %295, %298
  %300 = load i32, ptr %6, align 4, !tbaa !12
  %301 = shl i32 %300, 10
  %302 = and i32 %301, 134217728
  %303 = or i32 %299, %302
  %304 = load i32, ptr %6, align 4, !tbaa !12
  %305 = shl i32 %304, 22
  %306 = and i32 %305, 67108864
  %307 = or i32 %303, %306
  %308 = load i32, ptr %6, align 4, !tbaa !12
  %309 = lshr i32 %308, 2
  %310 = and i32 %309, 33554432
  %311 = or i32 %307, %310
  %312 = load i32, ptr %6, align 4, !tbaa !12
  %313 = shl i32 %312, 1
  %314 = and i32 %313, 16777216
  %315 = or i32 %311, %314
  %316 = load i32, ptr %6, align 4, !tbaa !12
  %317 = shl i32 %316, 16
  %318 = and i32 %317, 2097152
  %319 = or i32 %315, %318
  %320 = load i32, ptr %6, align 4, !tbaa !12
  %321 = shl i32 %320, 11
  %322 = and i32 %321, 1048576
  %323 = or i32 %319, %322
  %324 = load i32, ptr %6, align 4, !tbaa !12
  %325 = shl i32 %324, 3
  %326 = and i32 %325, 524288
  %327 = or i32 %323, %326
  %328 = load i32, ptr %6, align 4, !tbaa !12
  %329 = lshr i32 %328, 6
  %330 = and i32 %329, 262144
  %331 = or i32 %327, %330
  %332 = load i32, ptr %6, align 4, !tbaa !12
  %333 = shl i32 %332, 15
  %334 = and i32 %333, 131072
  %335 = or i32 %331, %334
  %336 = load i32, ptr %6, align 4, !tbaa !12
  %337 = lshr i32 %336, 4
  %338 = and i32 %337, 65536
  %339 = or i32 %335, %338
  %340 = load i32, ptr %7, align 4, !tbaa !12
  %341 = lshr i32 %340, 2
  %342 = and i32 %341, 8192
  %343 = or i32 %339, %342
  %344 = load i32, ptr %7, align 4, !tbaa !12
  %345 = shl i32 %344, 8
  %346 = and i32 %345, 4096
  %347 = or i32 %343, %346
  %348 = load i32, ptr %7, align 4, !tbaa !12
  %349 = lshr i32 %348, 14
  %350 = and i32 %349, 2056
  %351 = or i32 %347, %350
  %352 = load i32, ptr %7, align 4, !tbaa !12
  %353 = lshr i32 %352, 9
  %354 = and i32 %353, 1024
  %355 = or i32 %351, %354
  %356 = load i32, ptr %7, align 4, !tbaa !12
  %357 = and i32 %356, 512
  %358 = or i32 %355, %357
  %359 = load i32, ptr %7, align 4, !tbaa !12
  %360 = shl i32 %359, 7
  %361 = and i32 %360, 256
  %362 = or i32 %358, %361
  %363 = load i32, ptr %7, align 4, !tbaa !12
  %364 = lshr i32 %363, 7
  %365 = and i32 %364, 32
  %366 = or i32 %362, %365
  %367 = load i32, ptr %7, align 4, !tbaa !12
  %368 = lshr i32 %367, 3
  %369 = and i32 %368, 17
  %370 = or i32 %366, %369
  %371 = load i32, ptr %7, align 4, !tbaa !12
  %372 = shl i32 %371, 2
  %373 = and i32 %372, 4
  %374 = or i32 %370, %373
  %375 = load i32, ptr %7, align 4, !tbaa !12
  %376 = lshr i32 %375, 21
  %377 = and i32 %376, 2
  %378 = or i32 %374, %377
  %379 = load ptr, ptr %3, align 8, !tbaa !19
  %380 = getelementptr inbounds nuw i32, ptr %379, i32 1
  store ptr %380, ptr %3, align 8, !tbaa !19
  store i32 %378, ptr %379, align 4, !tbaa !12
  br label %381

381:                                              ; preds = %204
  %382 = load i32, ptr %5, align 4, !tbaa !12
  %383 = add nsw i32 %382, 1
  store i32 %383, ptr %5, align 4, !tbaa !12
  br label %166, !llvm.loop !21

384:                                              ; preds = %166
  call void @llvm.lifetime.end.p0(i64 4, ptr %8) #8
  call void @llvm.lifetime.end.p0(i64 4, ptr %7) #8
  call void @llvm.lifetime.end.p0(i64 4, ptr %6) #8
  call void @llvm.lifetime.end.p0(i64 4, ptr %5) #8
  ret void
}