; Function Attrs: nofree norecurse nosync nounwind memory(argmem: readwrite) uwtable
define hidden void @mbedtls_des_setkey(ptr noundef writeonly captures(none) %0, ptr noundef readonly captures(none) %1) local_unnamed_addr #4 {
  %.0.copyload.i = load i32, ptr %1, align 1
  %3 = tail call i32 @llvm.bswap.i32(i32 %.0.copyload.i)
  %4 = getelementptr inbounds nuw i8, ptr %1, i64 4
  %.0.copyload.i100 = load i32, ptr %4, align 1
  %5 = tail call i32 @llvm.bswap.i32(i32 %.0.copyload.i100)
  %6 = lshr i32 %5, 4
  %7 = xor i32 %6, %3
  %8 = and i32 %7, 252645135
  %9 = xor i32 %8, %3
  %10 = shl nuw i32 %8, 4
  %11 = xor i32 %10, %5
  %12 = and i32 %3, 269488144
  %13 = and i32 %11, -269488145
  %14 = or disjoint i32 %13, %12
  %15 = and i32 %9, 15
  %16 = zext nneg i32 %15 to i64
  %17 = getelementptr inbounds nuw [16 x i32], ptr @LHs, i64 0, i64 %16
  %18 = load i32, ptr %17, align 4, !tbaa !10
  %19 = shl i32 %18, 3
  %20 = lshr i32 %9, 8
  %21 = and i32 %20, 15
  %22 = zext nneg i32 %21 to i64
  %23 = getelementptr inbounds nuw [16 x i32], ptr @LHs, i64 0, i64 %22
  %24 = load i32, ptr %23, align 4, !tbaa !10
  %25 = shl i32 %24, 2
  %26 = or i32 %25, %19
  %27 = lshr i32 %9, 16
  %28 = and i32 %27, 15
  %29 = zext nneg i32 %28 to i64
  %30 = getelementptr inbounds nuw [16 x i32], ptr @LHs, i64 0, i64 %29
  %31 = load i32, ptr %30, align 4, !tbaa !10
  %32 = shl i32 %31, 1
  %33 = or i32 %26, %32
  %34 = lshr i32 %9, 24
  %35 = and i32 %34, 15
  %36 = zext nneg i32 %35 to i64
  %37 = getelementptr inbounds nuw [16 x i32], ptr @LHs, i64 0, i64 %36
  %38 = load i32, ptr %37, align 4, !tbaa !10
  %39 = or i32 %33, %38
  %40 = lshr i32 %9, 5
  %41 = and i32 %40, 15
  %42 = zext nneg i32 %41 to i64
  %43 = getelementptr inbounds nuw [16 x i32], ptr @LHs, i64 0, i64 %42
  %44 = load i32, ptr %43, align 4, !tbaa !10
  %45 = shl i32 %44, 7
  %46 = or i32 %39, %45
  %47 = lshr i32 %9, 13
  %48 = and i32 %47, 15
  %49 = zext nneg i32 %48 to i64
  %50 = getelementptr inbounds nuw [16 x i32], ptr @LHs, i64 0, i64 %49
  %51 = load i32, ptr %50, align 4, !tbaa !10
  %52 = shl i32 %51, 6
  %53 = or i32 %46, %52
  %54 = lshr i32 %9, 21
  %55 = and i32 %54, 15
  %56 = zext nneg i32 %55 to i64
  %57 = getelementptr inbounds nuw [16 x i32], ptr @LHs, i64 0, i64 %56
  %58 = load i32, ptr %57, align 4, !tbaa !10
  %59 = shl i32 %58, 5
  %60 = or i32 %53, %59
  %61 = lshr i32 %3, 29
  %62 = zext nneg i32 %61 to i64
  %63 = getelementptr inbounds nuw [16 x i32], ptr @LHs, i64 0, i64 %62
  %64 = load i32, ptr %63, align 4, !tbaa !10
  %65 = shl i32 %64, 4
  %66 = or i32 %60, %65
  %67 = lshr i32 %14, 1
  %68 = and i32 %67, 15
  %69 = zext nneg i32 %68 to i64
  %70 = getelementptr inbounds nuw [16 x i32], ptr @RHs, i64 0, i64 %69
  %71 = load i32, ptr %70, align 4, !tbaa !10
  %72 = shl i32 %71, 3
  %73 = lshr i32 %14, 9
  %74 = and i32 %73, 15
  %75 = zext nneg i32 %74 to i64
  %76 = getelementptr inbounds nuw [16 x i32], ptr @RHs, i64 0, i64 %75
  %77 = load i32, ptr %76, align 4, !tbaa !10
  %78 = shl i32 %77, 2
  %79 = or i32 %78, %72
  %80 = lshr i32 %14, 17
  %81 = and i32 %80, 15
  %82 = zext nneg i32 %81 to i64
  %83 = getelementptr inbounds nuw [16 x i32], ptr @RHs, i64 0, i64 %82
  %84 = load i32, ptr %83, align 4, !tbaa !10
  %85 = shl i32 %84, 1
  %86 = or i32 %79, %85
  %87 = lshr i32 %14, 25
  %88 = and i32 %87, 15
  %89 = zext nneg i32 %88 to i64
  %90 = getelementptr inbounds nuw [16 x i32], ptr @RHs, i64 0, i64 %89
  %91 = load i32, ptr %90, align 4, !tbaa !10
  %92 = or i32 %86, %91
  %93 = lshr i32 %14, 4
  %94 = and i32 %93, 15
  %95 = zext nneg i32 %94 to i64
  %96 = getelementptr inbounds nuw [16 x i32], ptr @RHs, i64 0, i64 %95
  %97 = load i32, ptr %96, align 4, !tbaa !10
  %98 = shl i32 %97, 7
  %99 = or i32 %92, %98
  %100 = lshr i32 %14, 12
  %101 = and i32 %100, 15
  %102 = zext nneg i32 %101 to i64
  %103 = getelementptr inbounds nuw [16 x i32], ptr @RHs, i64 0, i64 %102
  %104 = load i32, ptr %103, align 4, !tbaa !10
  %105 = shl i32 %104, 6
  %106 = or i32 %99, %105
  %107 = lshr i32 %14, 20
  %108 = and i32 %107, 15
  %109 = zext nneg i32 %108 to i64
  %110 = getelementptr inbounds nuw [16 x i32], ptr @RHs, i64 0, i64 %109
  %111 = load i32, ptr %110, align 4, !tbaa !10
  %112 = shl i32 %111, 5
  %113 = or i32 %106, %112
  %114 = lshr i32 %14, 28
  %115 = zext nneg i32 %114 to i64
  %116 = getelementptr inbounds nuw [16 x i32], ptr @RHs, i64 0, i64 %115
  %117 = load i32, ptr %116, align 4, !tbaa !10
  %118 = shl i32 %117, 4
  %119 = or i32 %113, %118
  %120 = and i32 %66, 268435455
  %121 = and i32 %119, 268435455
  br label %122

122:                                              ; preds = %2, %124
  %.0104 = phi ptr [ %0, %2 ], [ %256, %124 ]
  %.093103 = phi i32 [ %121, %2 ], [ %130, %124 ]
  %.094102 = phi i32 [ %120, %2 ], [ %127, %124 ]
  %.096101 = phi i32 [ 0, %2 ], [ %257, %124 ]
  switch i32 %.096101, label %123 [
    i32 15, label %124
    i32 8, label %124
    i32 1, label %124
    i32 0, label %124
  ]

123:                                              ; preds = %122
  br label %124

124:                                              ; preds = %122, %122, %122, %122, %123
  %.sink112 = phi i32 [ 2, %123 ], [ 1, %122 ], [ 1, %122 ], [ 1, %122 ], [ 1, %122 ]
  %.sink111 = phi i32 [ 26, %123 ], [ 27, %122 ], [ 27, %122 ], [ 27, %122 ], [ 27, %122 ]
  %.sink110 = phi i32 [ 268435452, %123 ], [ 268435454, %122 ], [ 268435454, %122 ], [ 268435454, %122 ], [ 268435454, %122 ]
  %125 = shl nuw nsw i32 %.094102, %.sink112
  %126 = lshr i32 %.094102, %.sink111
  %.masked = and i32 %125, %.sink110
  %127 = or i32 %.masked, %126
  %128 = shl nuw nsw i32 %.093103, %.sink112
  %129 = lshr i32 %.093103, %.sink111
  %.masked97 = and i32 %128, %.sink110
  %130 = or i32 %.masked97, %129
  %131 = shl nuw i32 %.masked, 4
  %132 = and i32 %131, 603979776
  %133 = shl i32 %126, 28
  %134 = and i32 %133, 268435456
  %135 = or disjoint i32 %132, %134
  %136 = shl i32 %125, 14
  %137 = and i32 %136, 134217728
  %138 = or disjoint i32 %135, %137
  %139 = shl i32 %127, 18
  %140 = and i32 %139, 34078720
  %141 = or disjoint i32 %138, %140
  %142 = shl i32 %125, 6
  %143 = and i32 %142, 16777216
  %144 = or disjoint i32 %141, %143
  %145 = shl i32 %125, 9
  %146 = and i32 %145, 2097152
  %147 = or disjoint i32 %144, %146
  %148 = lshr exact i32 %125, 1
  %149 = and i32 %148, 1048576
  %150 = or i32 %147, %149
  %151 = shl i32 %127, 10
  %152 = and i32 %151, 262144
  %153 = or i32 %150, %152
  %154 = shl nuw nsw i32 %.masked, 2
  %155 = and i32 %154, 131072
  %156 = or i32 %153, %155
  %157 = lshr i32 %125, 10
  %158 = and i32 %157, 65536
  %159 = or i32 %156, %158
  %160 = lshr i32 %128, 13
  %161 = and i32 %160, 8192
  %162 = lshr i32 %128, 4
  %163 = and i32 %162, 4096
  %164 = shl i32 %130, 6
  %165 = and i32 %164, 2048
  %166 = lshr exact i32 %128, 1
  %167 = and i32 %166, 1024
  %168 = lshr i32 %.masked97, 14
  %169 = and i32 %168, 512
  %170 = and i32 %128, 256
  %171 = lshr i32 %128, 5
  %172 = and i32 %171, 32
  %173 = lshr i32 %128, 10
  %174 = and i32 %173, 16
  %175 = lshr i32 %130, 3
  %176 = and i32 %175, 8
  %177 = lshr i32 %128, 18
  %178 = and i32 %177, 4
  %179 = lshr i32 %128, 26
  %180 = and i32 %179, 2
  %181 = lshr i32 %128, 24
  %182 = and i32 %181, 1
  %183 = or i32 %159, %170
  %184 = or i32 %183, %161
  %185 = or i32 %184, %163
  %186 = or i32 %185, %165
  %187 = or i32 %186, %167
  %188 = or i32 %187, %169
  %189 = or i32 %188, %172
  %190 = or i32 %189, %174
  %191 = or i32 %190, %176
  %192 = or i32 %191, %178
  %193 = or i32 %192, %180
  %194 = or i32 %193, %182
  %195 = getelementptr inbounds nuw i8, ptr %.0104, i64 4
  store i32 %194, ptr %.0104, align 4, !tbaa !10
  %196 = shl i32 %127, 15
  %197 = and i32 %196, 536870912
  %198 = shl i32 %125, 17
  %199 = and i32 %198, 268435456
  %200 = or disjoint i32 %197, %199
  %201 = and i32 %151, 134217728
  %202 = or disjoint i32 %200, %201
  %203 = shl i32 %127, 22
  %204 = and i32 %203, 67108864
  %205 = or disjoint i32 %202, %204
  %206 = lshr i32 %125, 2
  %207 = and i32 %206, 33554432
  %208 = or disjoint i32 %205, %207
  %209 = shl nuw nsw i32 %.masked, 1
  %210 = and i32 %209, 16777216
  %211 = or disjoint i32 %208, %210
  %212 = shl i32 %127, 16
  %213 = and i32 %212, 2097152
  %214 = or i32 %211, %213
  %215 = shl i32 %125, 11
  %216 = and i32 %215, 1048576
  %217 = or i32 %214, %216
  %218 = shl nuw nsw i32 %.masked, 3
  %219 = and i32 %218, 524288
  %220 = or i32 %217, %219
  %221 = lshr i32 %125, 6
  %222 = and i32 %221, 262144
  %223 = or i32 %220, %222
  %224 = and i32 %196, 131072
  %225 = or i32 %223, %224
  %226 = lshr i32 %125, 4
  %227 = and i32 %226, 65536
  %228 = or i32 %225, %227
  %229 = lshr i32 %128, 2
  %230 = and i32 %229, 8192
  %231 = shl i32 %130, 8
  %232 = and i32 %231, 4096
  %233 = and i32 %168, 2056
  %234 = lshr i32 %128, 9
  %235 = and i32 %234, 1024
  %236 = and i32 %128, 512
  %237 = shl i32 %130, 7
  %238 = and i32 %237, 256
  %239 = lshr i32 %128, 7
  %240 = and i32 %239, 32
  %241 = and i32 %175, 17
  %242 = shl nuw nsw i32 %129, 2
  %243 = and i32 %242, 4
  %244 = lshr i32 %128, 21
  %245 = and i32 %244, 2
  %246 = or i32 %228, %236
  %247 = or i32 %246, %230
  %248 = or i32 %247, %232
  %249 = or i32 %248, %233
  %250 = or i32 %249, %235
  %251 = or i32 %250, %238
  %252 = or i32 %251, %240
  %253 = or i32 %252, %241
  %254 = or i32 %253, %243
  %255 = or i32 %254, %245
  %256 = getelementptr inbounds nuw i8, ptr %.0104, i64 8
  store i32 %255, ptr %195, align 4, !tbaa !10
  %257 = add nuw nsw i32 %.096101, 1
  %exitcond.not = icmp eq i32 %257, 16
  br i1 %exitcond.not, label %258, label %122, !llvm.loop !12

258:                                              ; preds = %124
  ret void
}